(i__main__
p_match
p0
(dp1
S'v2p'
p2
I411
sS'u2c'
p3
I15
sS'v1p'
p4
I411
sS'v2c'
p5
I412
sS'u2p'
p6
I15
sS'v1c'
p7
I411
sS'u1p'
p8
I15
sS'u1c'
p9
I15
sb.(i__main__
p_match
p0
(dp1
S'v2p'
p2
I306
sS'u2c'
p3
I10
sS'v1p'
p4
I306
sS'v2c'
p5
I306
sS'u2p'
p6
I10
sS'v1c'
p7
I306
sS'u1p'
p8
I16
sS'u1c'
p9
I16
sb.(i__main__
p_match
p0
(dp1
S'v2p'
p2
I406
sS'u2c'
p3
I16
sS'v1p'
p4
I406
sS'v2c'
p5
I406
sS'u2p'
p6
I16
sS'v1c'
p7
I406
sS'u1p'
p8
I16
sS'u1c'
p9
I16
sb.(i__main__
p_match
p0
(dp1
S'v2p'
p2
I40
sS'u2c'
p3
I35
sS'v1p'
p4
I40
sS'v2c'
p5
I28
sS'u2p'
p6
I35
sS'v1c'
p7
I28
sS'u1p'
p8
I35
sS'u1c'
p9
I35
sb.(i__main__
p_match
p0
(dp1
S'v2p'
p2
I296
sS'u2c'
p3
I10
sS'v1p'
p4
I295
sS'v2c'
p5
I295
sS'u2p'
p6
I10
sS'v1c'
p7
I295
sS'u1p'
p8
I37
sS'u1c'
p9
I38
sb.(i__main__
p_match
p0
(dp1
S'v2p'
p2
I302
sS'u2c'
p3
I11
sS'v1p'
p4
I301
sS'v2c'
p5
I301
sS'u2p'
p6
I11
sS'v1c'
p7
I300
sS'u1p'
p8
I40
sS'u1c'
p9
I40
sb.(i__main__
p_match
p0
(dp1
S'v2p'
p2
I329
sS'u2c'
p3
I40
sS'v1p'
p4
I330
sS'v2c'
p5
I329
sS'u2p'
p6
I40
sS'v1c'
p7
I330
sS'u1p'
p8
I40
sS'u1c'
p9
I40
sb.(i__main__
p_match
p0
(dp1
S'v2p'
p2
I328
sS'u2c'
p3
I46
sS'v1p'
p4
I329
sS'v2c'
p5
I328
sS'u2p'
p6
I46
sS'v1c'
p7
I329
sS'u1p'
p8
I46
sS'u1c'
p9
I46
sb.(i__main__
p_match
p0
(dp1
S'v2p'
p2
I308
sS'u2c'
p3
I53
sS'v1p'
p4
I309
sS'v2c'
p5
I308
sS'u2p'
p6
I52
sS'v1c'
p7
I309
sS'u1p'
p8
I52
sS'u1c'
p9
I53
sb.(i__main__
p_match
p0
(dp1
S'v2p'
p2
I310
sS'u2c'
p3
I57
sS'v1p'
p4
I311
sS'v2c'
p5
I310
sS'u2p'
p6
I56
sS'v1c'
p7
I311
sS'u1p'
p8
I56
sS'u1c'
p9
I57
sb.(i__main__
p_match
p0
(dp1
S'v2p'
p2
I320
sS'u2c'
p3
I56
sS'v1p'
p4
I321
sS'v2c'
p5
I320
sS'u2p'
p6
I55
sS'v1c'
p7
I321
sS'u1p'
p8
I55
sS'u1c'
p9
I56
sb.(i__main__
p_match
p0
(dp1
S'v2p'
p2
I331
sS'u2c'
p3
I53
sS'v1p'
p4
I331
sS'v2c'
p5
I331
sS'u2p'
p6
I52
sS'v1c'
p7
I331
sS'u1p'
p8
I52
sS'u1c'
p9
I53
sb.(i__main__
p_match
p0
(dp1
S'v2p'
p2
I346
sS'u2c'
p3
I58
sS'v1p'
p4
I347
sS'v2c'
p5
I346
sS'u2p'
p6
I58
sS'v1c'
p7
I347
sS'u1p'
p8
I58
sS'u1c'
p9
I58
sb.(i__main__
p_match
p0
(dp1
S'v2p'
p2
I352
sS'u2c'
p3
I59
sS'v1p'
p4
I353
sS'v2c'
p5
I352
sS'u2p'
p6
I58
sS'v1c'
p7
I353
sS'u1p'
p8
I58
sS'u1c'
p9
I58
sb.(i__main__
p_match
p0
(dp1
S'v2p'
p2
I358
sS'u2c'
p3
I58
sS'v1p'
p4
I359
sS'v2c'
p5
I358
sS'u2p'
p6
I58
sS'v1c'
p7
I359
sS'u1p'
p8
I58
sS'u1c'
p9
I58
sb.(i__main__
p_match
p0
(dp1
S'v2p'
p2
I172
sS'u2c'
p3
I72
sS'v1p'
p4
I172
sS'v2c'
p5
I166
sS'u2p'
p6
I71
sS'v1c'
p7
I166
sS'u1p'
p8
I71
sS'u1c'
p9
I72
sb.(i__main__
p_match
p0
(dp1
S'v2p'
p2
I231
sS'u2c'
p3
I74
sS'v1p'
p4
I230
sS'v2c'
p5
I229
sS'u2p'
p6
I73
sS'v1c'
p7
I228
sS'u1p'
p8
I74
sS'u1c'
p9
I75
sb.(i__main__
p_match
p0
(dp1
S'v2p'
p2
I333
sS'u2c'
p3
I94
sS'v1p'
p4
I334
sS'v2c'
p5
I334
sS'u2p'
p6
I93
sS'v1c'
p7
I334
sS'u1p'
p8
I92
sS'u1c'
p9
I94
sb.(i__main__
p_match
p0
(dp1
S'v2p'
p2
I77
sS'u2c'
p3
I114
sS'v1p'
p4
I76
sS'v2c'
p5
I54
sS'u2p'
p6
I109
sS'v1c'
p7
I55
sS'u1p'
p8
I112
sS'u1c'
p9
I117
sb.(i__main__
p_match
p0
(dp1
S'v2p'
p2
I426
sS'u2c'
p3
I142
sS'v1p'
p4
I426
sS'v2c'
p5
I436
sS'u2p'
p6
I133
sS'v1c'
p7
I435
sS'u1p'
p8
I118
sS'u1c'
p9
I124
sb.(i__main__
p_match
p0
(dp1
S'v2p'
p2
I384
sS'u2c'
p3
I10
sS'v1p'
p4
I385
sS'v2c'
p5
I384
sS'u2p'
p6
I10
sS'v1c'
p7
I385
sS'u1p'
p8
I10
sS'u1c'
p9
I10
sb.(i__main__
p_match
p0
(dp1
S'v2p'
p2
I406
sS'u2c'
p3
I18
sS'v1p'
p4
I406
sS'v2c'
p5
I406
sS'u2p'
p6
I18
sS'v1c'
p7
I406
sS'u1p'
p8
I18
sS'u1c'
p9
I18
sb.(i__main__
p_match
p0
(dp1
S'v2p'
p2
I22
sS'u2c'
p3
I35
sS'v1p'
p4
I22
sS'v2c'
p5
I10
sS'u2p'
p6
I35
sS'v1c'
p7
I10
sS'u1p'
p8
I35
sS'u1c'
p9
I35
sb.(i__main__
p_match
p0
(dp1
S'v2p'
p2
I28
sS'u2c'
p3
I36
sS'v1p'
p4
I28
sS'v2c'
p5
I16
sS'u2p'
p6
I36
sS'v1c'
p7
I16
sS'u1p'
p8
I35
sS'u1c'
p9
I35
sb.(i__main__
p_match
p0
(dp1
S'v2p'
p2
I34
sS'u2c'
p3
I36
sS'v1p'
p4
I34
sS'v2c'
p5
I22
sS'u2p'
p6
I36
sS'v1c'
p7
I22
sS'u1p'
p8
I36
sS'u1c'
p9
I36
sb.(i__main__
p_match
p0
(dp1
S'v2p'
p2
I40
sS'u2c'
p3
I37
sS'v1p'
p4
I40
sS'v2c'
p5
I28
sS'u2p'
p6
I37
sS'v1c'
p7
I28
sS'u1p'
p8
I37
sS'u1c'
p9
I37
sb.(i__main__
p_match
p0
(dp1
S'v2p'
p2
I46
sS'u2c'
p3
I38
sS'v1p'
p4
I46
sS'v2c'
p5
I34
sS'u2p'
p6
I38
sS'v1c'
p7
I34
sS'u1p'
p8
I37
sS'u1c'
p9
I37
sb.(i__main__
p_match
p0
(dp1
S'v2p'
p2
I304
sS'u2c'
p3
I34
sS'v1p'
p4
I305
sS'v2c'
p5
I304
sS'u2p'
p6
I34
sS'v1c'
p7
I305
sS'u1p'
p8
I34
sS'u1c'
p9
I34
sb.(i__main__
p_match
p0
(dp1
S'v2p'
p2
I609
sS'u2c'
p3
I34
sS'v1p'
p4
I608
sS'v2c'
p5
I631
sS'u2p'
p6
I37
sS'v1c'
p7
I631
sS'u1p'
p8
I34
sS'u1c'
p9
I34
sb.(i__main__
p_match
p0
(dp1
S'v2p'
p2
I304
sS'u2c'
p3
I52
sS'v1p'
p4
I304
sS'v2c'
p5
I304
sS'u2p'
p6
I52
sS'v1c'
p7
I304
sS'u1p'
p8
I52
sS'u1c'
p9
I52
sb.(i__main__
p_match
p0
(dp1
S'v2p'
p2
I336
sS'u2c'
p3
I53
sS'v1p'
p4
I336
sS'v2c'
p5
I336
sS'u2p'
p6
I52
sS'v1c'
p7
I337
sS'u1p'
p8
I52
sS'u1c'
p9
I52
sb.(i__main__
p_match
p0
(dp1
S'v2p'
p2
I34
sS'u2c'
p3
I59
sS'v1p'
p4
I34
sS'v2c'
p5
I25
sS'u2p'
p6
I58
sS'v1c'
p7
I26
sS'u1p'
p8
I58
sS'u1c'
p9
I59
sb.(i__main__
p_match
p0
(dp1
S'v2p'
p2
I292
sS'u2c'
p3
I64
sS'v1p'
p4
I293
sS'v2c'
p5
I292
sS'u2p'
p6
I64
sS'v1c'
p7
I293
sS'u1p'
p8
I64
sS'u1c'
p9
I64
sb.(i__main__
p_match
p0
(dp1
S'v2p'
p2
I34
sS'u2c'
p3
I113
sS'v1p'
p4
I34
sS'v2c'
p5
I10
sS'u2p'
p6
I110
sS'v1c'
p7
I11
sS'u1p'
p8
I110
sS'u1c'
p9
I113
sb.(i__main__
p_match
p0
(dp1
S'v2p'
p2
I144
sS'u2c'
p3
I107
sS'v1p'
p4
I144
sS'v2c'
p5
I133
sS'u2p'
p6
I104
sS'v1c'
p7
I132
sS'u1p'
p8
I108
sS'u1c'
p9
I112
sb.(i__main__
p_match
p0
(dp1
S'v2p'
p2
I314
sS'u2c'
p3
I33
sS'v1p'
p4
I315
sS'v2c'
p5
I314
sS'u2p'
p6
I32
sS'v1c'
p7
I315
sS'u1p'
p8
I32
sS'u1c'
p9
I33
sb.(i__main__
p_match
p0
(dp1
S'v2p'
p2
I325
sS'u2c'
p3
I32
sS'v1p'
p4
I326
sS'v2c'
p5
I325
sS'u2p'
p6
I31
sS'v1c'
p7
I326
sS'u1p'
p8
I31
sS'u1c'
p9
I32
sb.(i__main__
p_match
p0
(dp1
S'v2p'
p2
I12
sS'u2c'
p3
I36
sS'v1p'
p4
I12
sS'v2c'
p5
I11
sS'u2p'
p6
I35
sS'v1c'
p7
I11
sS'u1p'
p8
I35
sS'u1c'
p9
I36
sb.(i__main__
p_match
p0
(dp1
S'v2p'
p2
I28
sS'u2c'
p3
I37
sS'v1p'
p4
I29
sS'v2c'
p5
I18
sS'u2p'
p6
I37
sS'v1c'
p7
I19
sS'u1p'
p8
I36
sS'u1c'
p9
I36
sb.(i__main__
p_match
p0
(dp1
S'v2p'
p2
I306
sS'u2c'
p3
I45
sS'v1p'
p4
I307
sS'v2c'
p5
I306
sS'u2p'
p6
I45
sS'v1c'
p7
I307
sS'u1p'
p8
I45
sS'u1c'
p9
I45
sb.(i__main__
p_match
p0
(dp1
S'v2p'
p2
I313
sS'u2c'
p3
I46
sS'v1p'
p4
I314
sS'v2c'
p5
I313
sS'u2p'
p6
I45
sS'v1c'
p7
I314
sS'u1p'
p8
I45
sS'u1c'
p9
I46
sb.(i__main__
p_match
p0
(dp1
S'v2p'
p2
I316
sS'u2c'
p3
I42
sS'v1p'
p4
I317
sS'v2c'
p5
I316
sS'u2p'
p6
I42
sS'v1c'
p7
I317
sS'u1p'
p8
I42
sS'u1c'
p9
I42
sb.(i__main__
p_match
p0
(dp1
S'v2p'
p2
I322
sS'u2c'
p3
I46
sS'v1p'
p4
I323
sS'v2c'
p5
I322
sS'u2p'
p6
I46
sS'v1c'
p7
I323
sS'u1p'
p8
I44
sS'u1c'
p9
I45
sb.(i__main__
p_match
p0
(dp1
S'v2p'
p2
I329
sS'u2c'
p3
I46
sS'v1p'
p4
I330
sS'v2c'
p5
I329
sS'u2p'
p6
I46
sS'v1c'
p7
I330
sS'u1p'
p8
I45
sS'u1c'
p9
I45
sb.(i__main__
p_match
p0
(dp1
S'v2p'
p2
I347
sS'u2c'
p3
I41
sS'v1p'
p4
I348
sS'v2c'
p5
I347
sS'u2p'
p6
I40
sS'v1c'
p7
I348
sS'u1p'
p8
I41
sS'u1c'
p9
I41
sb.(i__main__
p_match
p0
(dp1
S'v2p'
p2
I327
sS'u2c'
p3
I52
sS'v1p'
p4
I328
sS'v2c'
p5
I327
sS'u2p'
p6
I51
sS'v1c'
p7
I328
sS'u1p'
p8
I51
sS'u1c'
p9
I52
sb.(i__main__
p_match
p0
(dp1
S'v2p'
p2
I312
sS'u2c'
p3
I56
sS'v1p'
p4
I313
sS'v2c'
p5
I312
sS'u2p'
p6
I55
sS'v1c'
p7
I313
sS'u1p'
p8
I55
sS'u1c'
p9
I56
sb.(i__main__
p_match
p0
(dp1
S'v2p'
p2
I348
sS'u2c'
p3
I55
sS'v1p'
p4
I349
sS'v2c'
p5
I349
sS'u2p'
p6
I55
sS'v1c'
p7
I349
sS'u1p'
p8
I55
sS'u1c'
p9
I56
sb.(i__main__
p_match
p0
(dp1
S'v2p'
p2
I309
sS'u2c'
p3
I59
sS'v1p'
p4
I310
sS'v2c'
p5
I309
sS'u2p'
p6
I58
sS'v1c'
p7
I310
sS'u1p'
p8
I58
sS'u1c'
p9
I59
sb.(i__main__
p_match
p0
(dp1
S'v2p'
p2
I223
sS'u2c'
p3
I76
sS'v1p'
p4
I224
sS'v2c'
p5
I221
sS'u2p'
p6
I75
sS'v1c'
p7
I221
sS'u1p'
p8
I76
sS'u1c'
p9
I77
sb.(i__main__
p_match
p0
(dp1
S'v2p'
p2
I237
sS'u2c'
p3
I82
sS'v1p'
p4
I236
sS'v2c'
p5
I236
sS'u2p'
p6
I81
sS'v1c'
p7
I235
sS'u1p'
p8
I83
sS'u1c'
p9
I84
sb.(i__main__
p_match
p0
(dp1
S'v2p'
p2
I246
sS'u2c'
p3
I89
sS'v1p'
p4
I246
sS'v2c'
p5
I242
sS'u2p'
p6
I87
sS'v1c'
p7
I243
sS'u1p'
p8
I87
sS'u1c'
p9
I89
sb.(i__main__
p_match
p0
(dp1
S'v2p'
p2
I94
sS'u2c'
p3
I111
sS'v1p'
p4
I94
sS'v2c'
p5
I77
sS'u2p'
p6
I107
sS'v1c'
p7
I78
sS'u1p'
p8
I110
sS'u1c'
p9
I114
sb.(i__main__
p_match
p0
(dp1
S'v2p'
p2
I170
sS'u2c'
p3
I142
sS'v1p'
p4
I171
sS'v2c'
p5
I150
sS'u2p'
p6
I133
sS'v1c'
p7
I150
sS'u1p'
p8
I144
sS'u1c'
p9
I155
sb.(i__main__
p_match
p0
(dp1
S'v2p'
p2
I301
sS'u2c'
p3
I13
sS'v1p'
p4
I300
sS'v2c'
p5
I300
sS'u2p'
p6
I13
sS'v1c'
p7
I299
sS'u1p'
p8
I10
sS'u1c'
p9
I10
sb.(i__main__
p_match
p0
(dp1
S'v2p'
p2
I40
sS'u2c'
p3
I34
sS'v1p'
p4
I40
sS'v2c'
p5
I28
sS'u2p'
p6
I34
sS'v1c'
p7
I28
sS'u1p'
p8
I34
sS'u1c'
p9
I34
sb.(i__main__
p_match
p0
(dp1
S'v2p'
p2
I46
sS'u2c'
p3
I34
sS'v1p'
p4
I46
sS'v2c'
p5
I34
sS'u2p'
p6
I34
sS'v1c'
p7
I34
sS'u1p'
p8
I34
sS'u1c'
p9
I34
sb.(i__main__
p_match
p0
(dp1
S'v2p'
p2
I349
sS'u2c'
p3
I46
sS'v1p'
p4
I350
sS'v2c'
p5
I349
sS'u2p'
p6
I46
sS'v1c'
p7
I350
sS'u1p'
p8
I46
sS'u1c'
p9
I46
sb.(i__main__
p_match
p0
(dp1
S'v2p'
p2
I329
sS'u2c'
p3
I52
sS'v1p'
p4
I330
sS'v2c'
p5
I330
sS'u2p'
p6
I52
sS'v1c'
p7
I330
sS'u1p'
p8
I52
sS'u1c'
p9
I52
sb.(i__main__
p_match
p0
(dp1
S'v2p'
p2
I40
sS'u2c'
p3
I60
sS'v1p'
p4
I41
sS'v2c'
p5
I28
sS'u2p'
p6
I59
sS'v1c'
p7
I29
sS'u1p'
p8
I59
sS'u1c'
p9
I60
sb.(i__main__
p_match
p0
(dp1
S'v2p'
p2
I317
sS'u2c'
p3
I58
sS'v1p'
p4
I318
sS'v2c'
p5
I317
sS'u2p'
p6
I58
sS'v1c'
p7
I318
sS'u1p'
p8
I58
sS'u1c'
p9
I58
sb.(i__main__
p_match
p0
(dp1
S'v2p'
p2
I353
sS'u2c'
p3
I58
sS'v1p'
p4
I354
sS'v2c'
p5
I353
sS'u2p'
p6
I58
sS'v1c'
p7
I354
sS'u1p'
p8
I58
sS'u1c'
p9
I58
sb.(i__main__
p_match
p0
(dp1
S'v2p'
p2
I298
sS'u2c'
p3
I64
sS'v1p'
p4
I299
sS'v2c'
p5
I298
sS'u2p'
p6
I64
sS'v1c'
p7
I299
sS'u1p'
p8
I64
sS'u1c'
p9
I64
sb.(i__main__
p_match
p0
(dp1
S'v2p'
p2
I323
sS'u2c'
p3
I182
sS'v1p'
p4
I322
sS'v2c'
p5
I322
sS'u2p'
p6
I162
sS'v1c'
p7
I322
sS'u1p'
p8
I113
sS'u1c'
p9
I118
sb.